; Function Attrs: mustprogress nofree nosync nounwind willreturn memory(read, inaccessiblemem: none) uwtable
define hidden noundef zeroext i1 @_ZN6google8protobuf8compiler3cpp18HasEnumDefinitionsEPKNS0_14FileDescriptorE(ptr nocapture noundef readonly %file) local_unnamed_addr #12 {
entry:
  %enum_type_count_.i = getelementptr inbounds i8, ptr %file, i64 64
  %0 = load i32, ptr %enum_type_count_.i, align 8
  %cmp = icmp sgt i32 %0, 0
  br i1 %cmp, label %return, label %for.cond.preheader

for.cond.preheader:                               ; preds = %entry
  %message_type_count_.i = getelementptr inbounds i8, ptr %file, i64 60
  %1 = load i32, ptr %message_type_count_.i, align 4
  %cmp25 = icmp sgt i32 %1, 0
  br i1 %cmp25, label %for.body.lr.ph, label %return

for.body.lr.ph:                                   ; preds = %for.cond.preheader
  %message_types_.i = getelementptr inbounds i8, ptr %file, i64 96
  %2 = load ptr, ptr %message_types_.i, align 8
  %wide.trip.count = zext nneg i32 %1 to i64
  br label %for.body

for.body:                                         ; preds = %for.body, %for.body.lr.ph
  %indvars.iv = phi i64 [ 0, %for.body.lr.ph ], [ %indvars.iv.next, %for.body ]
  %add.ptr.i = getelementptr inbounds %"class.google::protobuf::Descriptor", ptr %2, i64 %indvars.iv
  %call4 = tail call fastcc noundef zeroext i1 @_ZN6google8protobuf8compiler3cppL18HasEnumDefinitionsEPKNS0_10DescriptorE(ptr noundef %add.ptr.i)
  %indvars.iv.next = add nuw nsw i64 %indvars.iv, 1
  %exitcond.not = icmp eq i64 %indvars.iv.next, %wide.trip.count
  %or.cond = select i1 %call4, i1 true, i1 %exitcond.not
  br i1 %or.cond, label %return, label %for.body, !llvm.loop !174

return:                                           ; preds = %for.body, %for.cond.preheader, %entry
  %retval.0 = phi i1 [ true, %entry ], [ false, %for.cond.preheader ], [ %call4, %for.body ]
  ret i1 %retval.0
}